target datalayout = "e-m:e-p270:32:32-p271:32:32-p272:64:64-i64:64-i128:128-f80:128-n8:16:32:64-S128"
target triple = "x86_64-pc-linux-gnu"

%struct.H5O_token_t = type { [16 x i8] }
%struct.ref_path_node_t = type { %struct.H5O_token_t, ptr }
%struct.H5O_info2_t = type { i64, %struct.H5O_token_t, i32, i32, i64, i64, i64, i64, i64 }
%struct.H5R_ref_t = type { %union.anon.0 }
%union.anon.0 = type { i64, [56 x i8] }

@ref_path_table = internal global ptr null, align 8
@.str = private unnamed_addr constant [2 x i8] c"/\00", align 1
@thefile = internal global i64 -1, align 8
@.str.1 = private unnamed_addr constant [42 x i8] c"unable to construct reference path table\0A\00", align 1

; Function Attrs: nounwind uwtable
define internal i32 @init_ref_path_table() #0 {
  %1 = alloca i32, align 4
  %2 = load i64, ptr @thefile, align 8
  %3 = icmp sgt i64 %2, 0
  br i1 %3, label %4, label %14

4:                                                ; preds = %0
  %5 = call ptr @H5SL_create(i32 noundef 8, ptr noundef @ref_path_table_cmp)
  store ptr %5, ptr @ref_path_table, align 8
  %6 = icmp eq ptr %5, null
  br i1 %6, label %7, label %8

7:                                                ; preds = %4
  store i32 -1, ptr %1, align 4
  br label %15

8:                                                ; preds = %4
  %9 = load i64, ptr @thefile, align 8
  %10 = call i32 @h5trav_visit(i64 noundef %9, ptr noundef @.str, i1 noundef zeroext true, i1 noundef zeroext true, ptr noundef @init_ref_path_cb, ptr noundef null, ptr noundef null, i32 noundef 1)
  %11 = icmp slt i32 %10, 0
  br i1 %11, label %12, label %13

12:                                               ; preds = %8
  call void (ptr, ...) @error_msg(ptr noundef @.str.1)
  call void @h5tools_setstatus(i32 noundef 1)
  br label %13

13:                                               ; preds = %12, %8
  store i32 0, ptr %1, align 4
  br label %15

14:                                               ; preds = %0
  store i32 -1, ptr %1, align 4
  br label %15

15:                                               ; preds = %14, %13, %7
  %16 = load i32, ptr %1, align 4
  ret i32 %16
}

; Function Attrs: nounwind uwtable
define ptr @lookup_ref_path(ptr noundef byval(%struct.H5R_ref_t) align 8 %0) #0 {
  %2 = alloca ptr, align 8
  %3 = alloca %struct.H5O_info2_t, align 8
  %4 = alloca i32, align 4
  %5 = alloca i64, align 8
  %6 = alloca ptr, align 8
  %7 = load i64, ptr @thefile, align 8
  %8 = icmp slt i64 %7, 0
  br i1 %8, label %9, label %10

9:                                                ; preds = %1
  store ptr null, ptr %2, align 8
  br label %46

10:                                               ; preds = %1
  %11 = call i32 @H5Rget_type(ptr noundef %0)
  store i32 %11, ptr %4, align 4
  %12 = icmp eq i32 -1, %11
  br i1 %12, label %13, label %14

13:                                               ; preds = %10
  store ptr null, ptr %2, align 8
  br label %46

14:                                               ; preds = %10
  %15 = load i32, ptr %4, align 4
  switch i32 %15, label %22 [
    i32 0, label %16
    i32 2, label %16
    i32 1, label %21
    i32 3, label %21
    i32 4, label %21
    i32 5, label %21
    i32 -1, label %21
  ]

16:                                               ; preds = %14, %14
  %17 = call i64 @H5Ropen_object(ptr noundef %0, i64 noundef 0, i64 noundef 0)
  store i64 %17, ptr %5, align 8
  %18 = icmp slt i64 %17, 0
  br i1 %18, label %19, label %20

19:                                               ; preds = %16
  store ptr null, ptr %2, align 8
  br label %46

20:                                               ; preds = %16
  br label %23

21:                                               ; preds = %14, %14, %14, %14, %14
  br label %22

22:                                               ; preds = %21, %14
  store ptr null, ptr %2, align 8
  br label %46

23:                                               ; preds = %20
  %24 = load i64, ptr %5, align 8
  %25 = call i32 @H5Oget_info3(i64 noundef %24, ptr noundef %3, i32 noundef 31)
  %26 = icmp slt i32 %25, 0
  br i1 %26, label %27, label %28

27:                                               ; preds = %23
  store ptr null, ptr %2, align 8
  br label %46

28:                                               ; preds = %23
  %29 = load ptr, ptr @ref_path_table, align 8
  %30 = icmp eq ptr %29, null
  br i1 %30, label %31, label %33

31:                                               ; preds = %28
  %32 = call i32 @init_ref_path_table()
  br label %33

33:                                               ; preds = %31, %28
  %34 = load ptr, ptr @ref_path_table, align 8
  %35 = getelementptr inbounds %struct.H5O_info2_t, ptr %3, i32 0, i32 1
  %36 = call ptr @H5SL_search(ptr noundef %34, ptr noundef %35)
  store ptr %36, ptr %6, align 8
  %37 = load ptr, ptr %6, align 8
  %38 = icmp ne ptr %37, null
  br i1 %38, label %39, label %43

39:                                               ; preds = %33
  %40 = load ptr, ptr %6, align 8
  %41 = getelementptr inbounds %struct.ref_path_node_t, ptr %40, i32 0, i32 1
  %42 = load ptr, ptr %41, align 8
  br label %44

43:                                               ; preds = %33
  br label %44

44:                                               ; preds = %43, %39
  %45 = phi ptr [ %42, %39 ], [ null, %43 ]
  store ptr %45, ptr %2, align 8
  br label %46

46:                                               ; preds = %44, %27, %22, %19, %13, %9
  %47 = load ptr, ptr %2, align 8
  ret ptr %47
}