; Function Attrs: nounwind uwtable
define ptr @lookup_ref_path(ptr noundef byval(%struct.H5R_ref_t) align 8 %0) local_unnamed_addr #0 {
  %2 = alloca %struct.H5O_info2_t, align 8
  %3 = load i64, ptr @thefile, align 8
  %4 = icmp slt i64 %3, 0
  br i1 %4, label %32, label %5

5:                                                ; preds = %1
  %6 = call i32 @H5Rget_type(ptr noundef nonnull %0) #10
  switch i32 %6, label %32 [
    i32 2, label %7
    i32 0, label %7
  ]

7:                                                ; preds = %5, %5
  %8 = call i64 @H5Ropen_object(ptr noundef nonnull %0, i64 noundef 0, i64 noundef 0) #10
  %9 = icmp slt i64 %8, 0
  br i1 %9, label %32, label %10

10:                                               ; preds = %7
  %11 = call i32 @H5Oget_info3(i64 noundef %8, ptr noundef nonnull %2, i32 noundef 31) #10
  %12 = icmp slt i32 %11, 0
  br i1 %12, label %32, label %13

13:                                               ; preds = %10
  %14 = load ptr, ptr @ref_path_table, align 8
  %15 = icmp eq ptr %14, null
  %16 = load i64, ptr @thefile, align 8
  %17 = icmp sgt i64 %16, 0
  %or.cond = select i1 %15, i1 %17, i1 false
  br i1 %or.cond, label %18, label %init_ref_path_table.exit

18:                                               ; preds = %13
  %19 = call ptr @H5SL_create(i32 noundef 8, ptr noundef nonnull @ref_path_table_cmp) #10
  store ptr %19, ptr @ref_path_table, align 8
  %20 = icmp eq ptr %19, null
  br i1 %20, label %init_ref_path_table.exit, label %21

21:                                               ; preds = %18
  %22 = load i64, ptr @thefile, align 8
  %23 = call i32 @h5trav_visit(i64 noundef %22, ptr noundef nonnull @.str, i1 noundef zeroext true, i1 noundef zeroext true, ptr noundef nonnull @init_ref_path_cb, ptr noundef null, ptr noundef null, i32 noundef 1) #10
  %24 = icmp slt i32 %23, 0
  br i1 %24, label %25, label %init_ref_path_table.exit

25:                                               ; preds = %21
  call void (ptr, ...) @error_msg(ptr noundef nonnull @.str.1) #10
  call void @h5tools_setstatus(i32 noundef 1) #10
  br label %init_ref_path_table.exit

init_ref_path_table.exit:                         ; preds = %25, %21, %18, %13
  %26 = load ptr, ptr @ref_path_table, align 8
  %27 = getelementptr inbounds nuw i8, ptr %2, i64 8
  %28 = call ptr @H5SL_search(ptr noundef %26, ptr noundef nonnull %27) #10
  %.not = icmp eq ptr %28, null
  br i1 %.not, label %32, label %29

29:                                               ; preds = %init_ref_path_table.exit
  %30 = getelementptr inbounds nuw i8, ptr %28, i64 16
  %31 = load ptr, ptr %30, align 8
  br label %32

32:                                               ; preds = %29, %init_ref_path_table.exit, %10, %5, %7, %1
  %.0 = phi ptr [ null, %1 ], [ null, %7 ], [ null, %5 ], [ null, %10 ], [ %31, %29 ], [ null, %init_ref_path_table.exit ]
  ret ptr %.0
}